; Function Attrs: mustprogress uwtable
define hidden void @_ZN3sat14cut_simplifier11aig2clausesEv(ptr noundef nonnull align 8 dereferenceable(600) %this) local_unnamed_addr #3 align 2 {
entry:
  %m_aig_cuts = getelementptr inbounds i8, ptr %this, i64 72
  %call = tail call noundef nonnull align 8 dereferenceable(8) ptr @_ZN3sat8aig_cutsclEv(ptr noundef nonnull align 8 dereferenceable(480) %m_aig_cuts)
  %m_num_cuts.i = getelementptr inbounds i8, ptr %this, i64 276
  %0 = load i32, ptr %m_num_cuts.i, align 4
  %m_num_cuts = getelementptr inbounds i8, ptr %this, i64 16
  store i32 %0, ptr %m_num_cuts, align 8
  %1 = load ptr, ptr %this, align 8
  %m_cut_dont_cares.i = getelementptr inbounds i8, ptr %1, i64 208
  %2 = load i8, ptr %m_cut_dont_cares.i, align 8
  %3 = and i8 %2, 1
  %tobool.not.i = icmp eq i8 %3, 0
  br i1 %tobool.not.i, label %if.end.i, label %if.then.i

if.then.i:                                        ; preds = %entry
  tail call void @_ZN3sat14cut_simplifier9cuts2binsERK6vectorINS_7cut_setELb1EjE(ptr noundef nonnull align 8 dereferenceable(600) %this, ptr noundef nonnull align 8 dereferenceable(8) %call)
  tail call void @_ZN3sat14cut_simplifier15bins2dont_caresEv(ptr noundef nonnull align 8 dereferenceable(600) %this)
  tail call void @_ZN3sat14cut_simplifier15dont_cares2cutsERK6vectorINS_7cut_setELb1EjE(ptr noundef nonnull align 8 dereferenceable(600) %this, ptr noundef nonnull align 8 dereferenceable(8) %call)
  %.pre.i = load ptr, ptr %this, align 8
  br label %if.end.i

if.end.i:                                         ; preds = %if.then.i, %entry
  %4 = phi ptr [ %.pre.i, %if.then.i ], [ %1, %entry ]
  %m_cut_redundancies.i = getelementptr inbounds i8, ptr %4, i64 209
  %5 = load i8, ptr %m_cut_redundancies.i, align 1
  %6 = and i8 %5, 1
  %tobool4.not.i = icmp eq i8 %6, 0
  br i1 %tobool4.not.i, label %_ZN3sat14cut_simplifier14add_dont_caresERK6vectorINS_7cut_setELb1EjE.exit, label %if.then5.i

if.then5.i:                                       ; preds = %if.end.i
  tail call void @_ZN3sat8aig_cuts8simplifyEv(ptr noundef nonnull align 8 dereferenceable(480) %m_aig_cuts)
  br label %_ZN3sat14cut_simplifier14add_dont_caresERK6vectorINS_7cut_setELb1EjE.exit

_ZN3sat14cut_simplifier14add_dont_caresERK6vectorINS_7cut_setELb1EjE.exit: ; preds = %if.end.i, %if.then5.i
  tail call void @_ZN3sat14cut_simplifier10cuts2equivERK6vectorINS_7cut_setELb1EjE(ptr noundef nonnull align 8 dereferenceable(600) %this, ptr noundef nonnull align 8 dereferenceable(8) %call)
  tail call void @_ZN3sat14cut_simplifier12cuts2impliesERK6vectorINS_7cut_setELb1EjE(ptr noundef nonnull align 8 dereferenceable(600) %this, ptr noundef nonnull align 8 dereferenceable(8) %call)
  tail call void @_ZN3sat14cut_simplifier12simulate_eqsEv(ptr noundef nonnull align 8 dereferenceable(600) %this)
  ret void
}